target datalayout = "e-m:e-p270:32:32-p271:32:32-p272:64:64-i64:64-i128:128-f80:128-n8:16:32:64-S128"
target triple = "x86_64-pc-linux-gnu"

%struct._pcre_cache_entry = type { ptr, ptr, i32, i32, i32, i32, i32 }

; Function Attrs: nounwind uwtable
define dso_local ptr @pcre_get_compiled_regex_cache(ptr noundef %0) #0 {
  %2 = alloca ptr, align 8
  store ptr %0, ptr %2, align 8, !tbaa !4
  %3 = load ptr, ptr %2, align 8, !tbaa !4
  %4 = call ptr @pcre_get_compiled_regex_cache_ex(ptr noundef %3, i1 noundef zeroext true)
  ret ptr %4
}

; Function Attrs: nounwind uwtable
define dso_local ptr @pcre_get_compiled_regex(ptr noundef %0, ptr noundef %1) #0 {
  %3 = alloca ptr, align 8
  %4 = alloca ptr, align 8
  %5 = alloca ptr, align 8
  store ptr %0, ptr %3, align 8, !tbaa !4
  store ptr %1, ptr %4, align 8, !tbaa !70
  call void @llvm.lifetime.start.p0(i64 8, ptr %5) #17
  %6 = load ptr, ptr %3, align 8, !tbaa !4
  %7 = call ptr @pcre_get_compiled_regex_cache(ptr noundef %6)
  store ptr %7, ptr %5, align 8, !tbaa !64
  %8 = load ptr, ptr %4, align 8, !tbaa !70
  %9 = icmp ne ptr %8, null
  br i1 %9, label %10, label %21

10:                                               ; preds = %2
  %11 = load ptr, ptr %5, align 8, !tbaa !64
  %12 = icmp ne ptr %11, null
  br i1 %12, label %13, label %17

13:                                               ; preds = %10
  %14 = load ptr, ptr %5, align 8, !tbaa !64
  %15 = getelementptr inbounds nuw %struct._pcre_cache_entry, ptr %14, i32 0, i32 4
  %16 = load i32, ptr %15, align 8, !tbaa !72
  br label %18

17:                                               ; preds = %10
  br label %18

18:                                               ; preds = %17, %13
  %19 = phi i32 [ %16, %13 ], [ 0, %17 ]
  %20 = load ptr, ptr %4, align 8, !tbaa !70
  store i32 %19, ptr %20, align 4, !tbaa !13
  br label %21

21:                                               ; preds = %18, %2
  %22 = load ptr, ptr %5, align 8, !tbaa !64
  %23 = icmp ne ptr %22, null
  br i1 %23, label %24, label %28

24:                                               ; preds = %21
  %25 = load ptr, ptr %5, align 8, !tbaa !64
  %26 = getelementptr inbounds nuw %struct._pcre_cache_entry, ptr %25, i32 0, i32 0
  %27 = load ptr, ptr %26, align 8, !tbaa !57
  br label %29

28:                                               ; preds = %21
  br label %29

29:                                               ; preds = %28, %24
  %30 = phi ptr [ %27, %24 ], [ null, %28 ]
  call void @llvm.lifetime.end.p0(i64 8, ptr %5) #17
  ret ptr %30
}