; Function Attrs: nounwind uwtable
define dso_local ptr @pcre_get_compiled_regex(ptr noundef %0, ptr noundef writeonly captures(address_is_null) %1) local_unnamed_addr #0 {
  %3 = tail call ptr @pcre_get_compiled_regex_cache_ex(ptr noundef %0, i1 noundef zeroext true)
  %.not = icmp eq ptr %1, null
  br i1 %.not, label %10, label %4

4:                                                ; preds = %2
  %.not8 = icmp eq ptr %3, null
  br i1 %.not8, label %8, label %5

5:                                                ; preds = %4
  %6 = getelementptr inbounds nuw i8, ptr %3, i64 24
  %7 = load i32, ptr %6, align 8, !tbaa !65
  br label %8

8:                                                ; preds = %4, %5
  %9 = phi i32 [ %7, %5 ], [ 0, %4 ]
  store i32 %9, ptr %1, align 4, !tbaa !51
  br label %10

10:                                               ; preds = %8, %2
  %.not9 = icmp eq ptr %3, null
  br i1 %.not9, label %13, label %11

11:                                               ; preds = %10
  %12 = load ptr, ptr %3, align 8, !tbaa !57
  br label %13

13:                                               ; preds = %10, %11
  %14 = phi ptr [ %12, %11 ], [ null, %10 ]
  ret ptr %14
}